target datalayout = "e-m:e-p270:32:32-p271:32:32-p272:64:64-i64:64-i128:128-f80:128-n8:16:32:64-S128"
target triple = "x86_64-pc-linux-gnu"

; Function Attrs: nounwind uwtable
define void @FT_Add_Default_Modules(ptr noundef %0) #0 {
  %2 = alloca ptr, align 8
  %3 = alloca i32, align 4
  %4 = alloca ptr, align 8
  store ptr %0, ptr %2, align 8
  store ptr @ft_default_modules, ptr %4, align 8
  br label %5

5:                                                ; preds = %19, %1
  %6 = load ptr, ptr %4, align 8
  %7 = load ptr, ptr %6, align 8
  %8 = icmp ne ptr %7, null
  br i1 %8, label %9, label %22

9:                                                ; preds = %5
  %10 = load ptr, ptr %2, align 8
  %11 = load ptr, ptr %4, align 8
  %12 = load ptr, ptr %11, align 8
  %13 = call i32 @FT_Add_Module(ptr noundef %10, ptr noundef %12)
  store i32 %13, ptr %3, align 4
  %14 = load i32, ptr %3, align 4
  %15 = icmp ne i32 %14, 0
  br i1 %15, label %16, label %19

16:                                               ; preds = %9
  br label %17

17:                                               ; preds = %16
  br label %18

18:                                               ; preds = %17
  br label %19

19:                                               ; preds = %18, %9
  %20 = load ptr, ptr %4, align 8
  %21 = getelementptr inbounds ptr, ptr %20, i32 1
  store ptr %21, ptr %4, align 8
  br label %5, !llvm.loop !4

22:                                               ; preds = %5
  ret void
}

; Function Attrs: nounwind uwtable
define i32 @FT_Init_FreeType(ptr noundef %0) #0 {
  %2 = alloca i32, align 4
  %3 = alloca ptr, align 8
  %4 = alloca i32, align 4
  %5 = alloca ptr, align 8
  store ptr %0, ptr %3, align 8
  %6 = call ptr @FT_New_Memory()
  store ptr %6, ptr %5, align 8
  %7 = load ptr, ptr %5, align 8
  %8 = icmp ne ptr %7, null
  br i1 %8, label %12, label %9

9:                                                ; preds = %1
  br label %10

10:                                               ; preds = %9
  br label %11

11:                                               ; preds = %10
  store i32 7, ptr %2, align 4
  br label %27

12:                                               ; preds = %1
  %13 = load ptr, ptr %5, align 8
  %14 = load ptr, ptr %3, align 8
  %15 = call i32 @FT_New_Library(ptr noundef %13, ptr noundef %14)
  store i32 %15, ptr %4, align 4
  %16 = load i32, ptr %4, align 4
  %17 = icmp ne i32 %16, 0
  br i1 %17, label %18, label %20

18:                                               ; preds = %12
  %19 = load ptr, ptr %5, align 8
  call void @FT_Done_Memory(ptr noundef %19)
  br label %23

20:                                               ; preds = %12
  %21 = load ptr, ptr %3, align 8
  %22 = load ptr, ptr %21, align 8
  call void @FT_Add_Default_Modules(ptr noundef %22)
  br label %23

23:                                               ; preds = %20, %18
  %24 = load ptr, ptr %3, align 8
  %25 = load ptr, ptr %24, align 8
  call void @FT_Set_Default_Properties(ptr noundef %25)
  %26 = load i32, ptr %4, align 4
  store i32 %26, ptr %2, align 4
  br label %27

27:                                               ; preds = %23, %11
  %28 = load i32, ptr %2, align 4
  ret i32 %28
}