; Function Attrs: nounwind uwtable
define i32 @FT_Init_FreeType(ptr noundef %0) local_unnamed_addr #0 {
  %2 = tail call ptr @FT_New_Memory() #3
  %.not = icmp eq ptr %2, null
  br i1 %.not, label %14, label %3

3:                                                ; preds = %1
  %4 = tail call i32 @FT_New_Library(ptr noundef nonnull %2, ptr noundef %0) #3
  %.not9 = icmp eq i32 %4, 0
  br i1 %.not9, label %6, label %5

5:                                                ; preds = %3
  tail call void @FT_Done_Memory(ptr noundef nonnull %2) #3
  br label %FT_Add_Default_Modules.exit

6:                                                ; preds = %3
  %7 = load ptr, ptr %0, align 8
  br label %8

8:                                                ; preds = %8, %6
  %9 = phi ptr [ @autofit_module_class, %6 ], [ %12, %8 ]
  %.05.i = phi ptr [ @ft_default_modules, %6 ], [ %11, %8 ]
  %10 = tail call i32 @FT_Add_Module(ptr noundef %7, ptr noundef nonnull %9) #3
  %11 = getelementptr inbounds i8, ptr %.05.i, i64 8
  %12 = load ptr, ptr %11, align 8
  %.not.i = icmp eq ptr %12, null
  br i1 %.not.i, label %FT_Add_Default_Modules.exit, label %8, !llvm.loop !4

FT_Add_Default_Modules.exit:                      ; preds = %8, %5
  %13 = load ptr, ptr %0, align 8
  tail call void @FT_Set_Default_Properties(ptr noundef %13)
  br label %14

14:                                               ; preds = %1, %FT_Add_Default_Modules.exit
  %.0 = phi i32 [ %4, %FT_Add_Default_Modules.exit ], [ 7, %1 ]
  ret i32 %.0
}